target datalayout = "e-m:e-p270:32:32-p271:32:32-p272:64:64-i64:64-i128:128-f80:128-n8:16:32:64-S128"
target triple = "x86_64-pc-linux-gnu"

%struct.quic_tserver_args_st = type { ptr, ptr, ptr, ptr, ptr, ptr, ptr, ptr, i64 }
%struct.quic_tserver_st = type { %struct.quic_tserver_args_st, ptr, ptr, ptr, ptr, ptr, ptr, ptr, i8 }
%struct.OSSL_TIME = type { i64 }
%struct.quic_stream_st = type { %struct.quic_stream_list_node_st, %struct.quic_stream_list_node_st, %struct.quic_stream_list_node_st, ptr, i64, i64, i64, i64, i64, i64, i64, ptr, ptr, %struct.quic_txfc_st, %struct.quic_rxfc_st, i64 }
%struct.quic_stream_list_node_st = type { ptr, ptr }
%struct.quic_txfc_st = type { ptr, i64, i64, i8 }
%struct.quic_rxfc_st = type { i64, i64, i64, i64, i64, i64, i64, %struct.OSSL_TIME, ptr, ptr, ptr, i8, i8, i8, i8 }

; Function Attrs: nounwind uwtable
define i32 @ossl_quic_tserver_tick(ptr noundef %0) #0 {
  %2 = alloca ptr, align 8
  store ptr %0, ptr %2, align 8, !tbaa !10
  %3 = load ptr, ptr %2, align 8, !tbaa !10
  %4 = getelementptr inbounds nuw %struct.quic_tserver_st, ptr %3, i32 0, i32 4
  %5 = load ptr, ptr %4, align 8, !tbaa !52
  %6 = call ptr @ossl_quic_channel_get_reactor(ptr noundef %5)
  %7 = call i32 @ossl_quic_reactor_tick(ptr noundef %6, i32 noundef 0)
  %8 = load ptr, ptr %2, align 8, !tbaa !10
  %9 = getelementptr inbounds nuw %struct.quic_tserver_st, ptr %8, i32 0, i32 4
  %10 = load ptr, ptr %9, align 8, !tbaa !52
  %11 = call i32 @ossl_quic_channel_is_active(ptr noundef %10)
  %12 = icmp ne i32 %11, 0
  br i1 %12, label %13, label %19

13:                                               ; preds = %1
  %14 = load ptr, ptr %2, align 8, !tbaa !10
  %15 = getelementptr inbounds nuw %struct.quic_tserver_st, ptr %14, i32 0, i32 8
  %16 = load i8, ptr %15, align 8
  %17 = and i8 %16, -2
  %18 = or i8 %17, 1
  store i8 %18, ptr %15, align 8
  br label %19

19:                                               ; preds = %13, %1
  ret i32 1
}

; Function Attrs: inlinehint nounwind uwtable
define internal i32 @ossl_quic_stream_has_send_buffer(ptr noundef %0) #5 {
  %2 = alloca i32, align 4
  %3 = alloca ptr, align 8
  store ptr %0, ptr %3, align 8, !tbaa !80
  %4 = load ptr, ptr %3, align 8, !tbaa !80
  %5 = getelementptr inbounds nuw %struct.quic_stream_st, ptr %4, i32 0, i32 15
  %6 = load i64, ptr %5, align 8
  %7 = lshr i64 %6, 8
  %8 = and i64 %7, 255
  %9 = trunc i64 %8 to i32
  switch i32 %9, label %11 [
    i32 1, label %10
    i32 2, label %10
    i32 3, label %10
  ]

10:                                               ; preds = %1, %1, %1
  store i32 1, ptr %2, align 4
  br label %12

11:                                               ; preds = %1
  store i32 0, ptr %2, align 4
  br label %12

12:                                               ; preds = %11, %10
  %13 = load i32, ptr %2, align 4
  ret i32 %13
}

; Function Attrs: nounwind uwtable
define i32 @ossl_quic_tserver_write(ptr noundef %0, i64 noundef %1, ptr noundef %2, i64 noundef %3, ptr noundef %4) #0 {
  %6 = alloca i32, align 4
  %7 = alloca ptr, align 8
  %8 = alloca i64, align 8
  %9 = alloca ptr, align 8
  %10 = alloca i64, align 8
  %11 = alloca ptr, align 8
  %12 = alloca ptr, align 8
  %13 = alloca i32, align 4
  store ptr %0, ptr %7, align 8, !tbaa !10
  store i64 %1, ptr %8, align 8, !tbaa !26
  store ptr %2, ptr %9, align 8, !tbaa !8
  store i64 %3, ptr %10, align 8, !tbaa !26
  store ptr %4, ptr %11, align 8, !tbaa !78
  call void @llvm.lifetime.start.p0(i64 8, ptr %12) #6
  %14 = load ptr, ptr %7, align 8, !tbaa !10
  %15 = getelementptr inbounds nuw %struct.quic_tserver_st, ptr %14, i32 0, i32 4
  %16 = load ptr, ptr %15, align 8, !tbaa !52
  %17 = call i32 @ossl_quic_channel_is_active(ptr noundef %16)
  %18 = icmp ne i32 %17, 0
  br i1 %18, label %20, label %19

19:                                               ; preds = %5
  store i32 0, ptr %6, align 4
  store i32 1, ptr %13, align 4
  br label %57

20:                                               ; preds = %5
  %21 = load ptr, ptr %7, align 8, !tbaa !10
  %22 = getelementptr inbounds nuw %struct.quic_tserver_st, ptr %21, i32 0, i32 4
  %23 = load ptr, ptr %22, align 8, !tbaa !52
  %24 = call ptr @ossl_quic_channel_get_qsm(ptr noundef %23)
  %25 = load i64, ptr %8, align 8, !tbaa !26
  %26 = call ptr @ossl_quic_stream_map_get_by_id(ptr noundef %24, i64 noundef %25)
  store ptr %26, ptr %12, align 8, !tbaa !80
  %27 = load ptr, ptr %12, align 8, !tbaa !80
  %28 = icmp eq ptr %27, null
  br i1 %28, label %33, label %29

29:                                               ; preds = %20
  %30 = load ptr, ptr %12, align 8, !tbaa !80
  %31 = call i32 @ossl_quic_stream_has_send_buffer(ptr noundef %30)
  %32 = icmp ne i32 %31, 0
  br i1 %32, label %34, label %33

33:                                               ; preds = %29, %20
  store i32 0, ptr %6, align 4
  store i32 1, ptr %13, align 4
  br label %57

34:                                               ; preds = %29
  %35 = load ptr, ptr %12, align 8, !tbaa !80
  %36 = getelementptr inbounds nuw %struct.quic_stream_st, ptr %35, i32 0, i32 11
  %37 = load ptr, ptr %36, align 8, !tbaa !93
  %38 = load ptr, ptr %9, align 8, !tbaa !8
  %39 = load i64, ptr %10, align 8, !tbaa !26
  %40 = load ptr, ptr %11, align 8, !tbaa !78
  %41 = call i32 @ossl_quic_sstream_append(ptr noundef %37, ptr noundef %38, i64 noundef %39, ptr noundef %40)
  %42 = icmp ne i32 %41, 0
  br i1 %42, label %44, label %43

43:                                               ; preds = %34
  store i32 0, ptr %6, align 4
  store i32 1, ptr %13, align 4
  br label %57

44:                                               ; preds = %34
  %45 = load ptr, ptr %11, align 8, !tbaa !78
  %46 = load i64, ptr %45, align 8, !tbaa !26
  %47 = icmp ugt i64 %46, 0
  br i1 %47, label %48, label %54

48:                                               ; preds = %44
  %49 = load ptr, ptr %7, align 8, !tbaa !10
  %50 = getelementptr inbounds nuw %struct.quic_tserver_st, ptr %49, i32 0, i32 4
  %51 = load ptr, ptr %50, align 8, !tbaa !52
  %52 = call ptr @ossl_quic_channel_get_qsm(ptr noundef %51)
  %53 = load ptr, ptr %12, align 8, !tbaa !80
  call void @ossl_quic_stream_map_update_state(ptr noundef %52, ptr noundef %53)
  br label %54

54:                                               ; preds = %48, %44
  %55 = load ptr, ptr %7, align 8, !tbaa !10
  %56 = call i32 @ossl_quic_tserver_tick(ptr noundef %55)
  store i32 1, ptr %6, align 4
  store i32 1, ptr %13, align 4
  br label %57

57:                                               ; preds = %54, %43, %33, %19
  call void @llvm.lifetime.end.p0(i64 8, ptr %12) #6
  %58 = load i32, ptr %6, align 4
  ret i32 %58
}