; Function Attrs: nounwind uwtable
define range(i32 0, 2) i32 @ossl_quic_tserver_write(ptr noundef captures(none) %0, i64 noundef %1, ptr noundef %2, i64 noundef %3, ptr noundef %4) local_unnamed_addr #0 {
  %6 = getelementptr inbounds nuw i8, ptr %0, i64 96
  %7 = load ptr, ptr %6, align 8, !tbaa !46
  %8 = tail call i32 @ossl_quic_channel_is_active(ptr noundef %7) #6
  %.not = icmp eq i32 %8, 0
  br i1 %.not, label %ossl_quic_tserver_tick.exit, label %9

9:                                                ; preds = %5
  %10 = load ptr, ptr %6, align 8, !tbaa !46
  %11 = tail call ptr @ossl_quic_channel_get_qsm(ptr noundef %10) #6
  %12 = tail call ptr @ossl_quic_stream_map_get_by_id(ptr noundef %11, i64 noundef %1) #6
  %13 = icmp eq ptr %12, null
  br i1 %13, label %ossl_quic_tserver_tick.exit, label %14

14:                                               ; preds = %9
  %15 = getelementptr i8, ptr %12, i64 256
  %.val = load i64, ptr %15, align 8
  %16 = lshr i64 %.val, 8
  %trunc.i = trunc i64 %16 to i8
  %17 = add i8 %trunc.i, -4
  %switch.i = icmp ult i8 %17, -3
  br i1 %switch.i, label %ossl_quic_tserver_tick.exit, label %18

18:                                               ; preds = %14
  %19 = getelementptr inbounds nuw i8, ptr %12, i64 112
  %20 = load ptr, ptr %19, align 8, !tbaa !81
  %21 = tail call i32 @ossl_quic_sstream_append(ptr noundef %20, ptr noundef %2, i64 noundef %3, ptr noundef %4) #6
  %.not15 = icmp eq i32 %21, 0
  br i1 %.not15, label %ossl_quic_tserver_tick.exit, label %22

22:                                               ; preds = %18
  %23 = load i64, ptr %4, align 8, !tbaa !20
  %.not16 = icmp eq i64 %23, 0
  br i1 %.not16, label %27, label %24

24:                                               ; preds = %22
  %25 = load ptr, ptr %6, align 8, !tbaa !46
  %26 = tail call ptr @ossl_quic_channel_get_qsm(ptr noundef %25) #6
  tail call void @ossl_quic_stream_map_update_state(ptr noundef %26, ptr noundef nonnull %12) #6
  br label %27

27:                                               ; preds = %24, %22
  %28 = load ptr, ptr %6, align 8, !tbaa !46
  %29 = tail call ptr @ossl_quic_channel_get_reactor(ptr noundef %28) #6
  %30 = tail call i32 @ossl_quic_reactor_tick(ptr noundef %29, i32 noundef 0) #6
  %31 = load ptr, ptr %6, align 8, !tbaa !46
  %32 = tail call i32 @ossl_quic_channel_is_active(ptr noundef %31) #6
  %.not.i = icmp eq i32 %32, 0
  br i1 %.not.i, label %ossl_quic_tserver_tick.exit, label %33

33:                                               ; preds = %27
  %34 = getelementptr inbounds nuw i8, ptr %0, i64 128
  %35 = load i8, ptr %34, align 8
  %36 = or i8 %35, 1
  store i8 %36, ptr %34, align 8
  br label %ossl_quic_tserver_tick.exit

ossl_quic_tserver_tick.exit:                      ; preds = %33, %27, %18, %9, %14, %5
  %.0 = phi i32 [ 0, %5 ], [ 0, %14 ], [ 0, %9 ], [ 0, %18 ], [ 1, %27 ], [ 1, %33 ]
  ret i32 %.0
}